; Function Attrs: nounwind uwtable
define internal i32 @ui_read(ptr noundef %0, ptr noundef %1) #0 {
  %3 = tail call i32 @UI_get_input_flags(ptr noundef %1) #5
  %4 = and i32 %3, 2
  %.not = icmp eq i32 %4, 0
  br i1 %.not, label %.critedge, label %5

5:                                                ; preds = %2
  %6 = tail call ptr @UI_get0_user_data(ptr noundef %0) #5
  %.not18 = icmp eq ptr %6, null
  br i1 %.not18, label %.critedge, label %7

7:                                                ; preds = %5
  %8 = tail call i32 @UI_get_string_type(ptr noundef %1) #5
  %.off = add i32 %8, -1
  %switch = icmp ult i32 %.off, 2
  br i1 %switch, label %9, label %.critedge

9:                                                ; preds = %7
  %10 = tail call ptr @UI_get0_user_data(ptr noundef %0) #5
  %11 = load ptr, ptr %10, align 8, !tbaa !9
  %.not19 = icmp eq ptr %11, null
  br i1 %.not19, label %.critedge, label %12

12:                                               ; preds = %9
  %13 = tail call i32 @UI_set_result(ptr noundef %0, ptr noundef %1, ptr noundef nonnull %11) #5
  br label %20

.critedge:                                        ; preds = %9, %7, %5, %2
  %14 = load ptr, ptr @ui_base_method, align 8, !tbaa !4
  %15 = tail call ptr @UI_method_get_reader(ptr noundef %14) #5
  %.not20 = icmp eq ptr %15, null
  br i1 %.not20, label %18, label %16

16:                                               ; preds = %.critedge
  %17 = tail call i32 %15(ptr noundef %0, ptr noundef %1) #5
  br label %20

18:                                               ; preds = %.critedge
  %19 = tail call i32 @UI_set_result(ptr noundef %0, ptr noundef %1, ptr noundef nonnull @.str.7) #5
  br label %20

20:                                               ; preds = %12, %18, %16
  %.1 = phi i32 [ %17, %16 ], [ 1, %18 ], [ 1, %12 ]
  ret i32 %.1
}